; ModuleID = 'source-C-CXX/59/1846.c'
source_filename = "source-C-CXX/59/1846.c"
target datalayout = "e-m:e-p270:32:32-p271:32:32-p272:64:64-i64:64-f80:128-n8:16:32:64-S128"
target triple = "x86_64-pc-linux-gnu"

@.str = private unnamed_addr constant [3 x i8] c"%d\00", align 1
@.str.2 = private unnamed_addr constant [7 x i8] c"%d %d\0A\00", align 1
@str = private unnamed_addr constant [6 x i8] c"empty\00", align 1

; Function Attrs: nofree nounwind sspstrong uwtable
define dso_local i32 @main() local_unnamed_addr #0 {
  %1 = alloca i32, align 4
  %2 = bitcast i32* %1 to i8*
  call void @llvm.lifetime.start.p0i8(i64 4, i8* nonnull %2) #5
  %3 = call i32 (i8*, ...) @__isoc99_scanf(i8* getelementptr inbounds ([3 x i8], [3 x i8]* @.str, i64 0, i64 0), i32* nonnull %1)
  %4 = load i32, i32* %1, align 4, !tbaa !5
  %5 = icmp slt i32 %4, 5
  br i1 %5, label %6, label %10

6:                                                ; preds = %0
  %7 = call i32 @puts(i8* nonnull dereferenceable(1) getelementptr inbounds ([6 x i8], [6 x i8]* @str, i64 0, i64 0))
  %8 = load i32, i32* %1, align 4, !tbaa !5
  %9 = icmp slt i32 %8, 5
  br i1 %9, label %53, label %10

10:                                               ; preds = %0, %6
  %11 = phi i32 [ %4, %0 ], [ %8, %6 ]
  br label %12

12:                                               ; preds = %10, %46
  %13 = phi i32 [ %48, %46 ], [ %11, %10 ]
  %14 = phi i32 [ %52, %46 ], [ 2, %10 ]
  %15 = phi i32 [ %51, %46 ], [ 1, %10 ]
  %16 = phi i32 [ %47, %46 ], [ 3, %10 ]
  %17 = call i32 @llvm.umax.i32(i32 %14, i32 2)
  %18 = call i32 @llvm.umax.i32(i32 %15, i32 2)
  %19 = lshr i32 %16, 1
  %20 = icmp ult i32 %16, 4
  br i1 %20, label %30, label %24

21:                                               ; preds = %24
  %22 = add nuw i32 %25, 1
  %23 = icmp eq i32 %25, %18
  br i1 %23, label %28, label %24, !llvm.loop !9

24:                                               ; preds = %12, %21
  %25 = phi i32 [ %22, %21 ], [ 2, %12 ]
  %26 = urem i32 %16, %25
  %27 = icmp eq i32 %26, 0
  br i1 %27, label %44, label %21

28:                                               ; preds = %21
  %29 = icmp uge i32 %25, %19
  br label %30

30:                                               ; preds = %12, %28
  %31 = phi i1 [ true, %12 ], [ %29, %28 ]
  %32 = add nuw nsw i32 %16, 2
  br label %36

33:                                               ; preds = %36
  %34 = add nuw i32 %37, 1
  %35 = icmp eq i32 %37, %17
  br i1 %35, label %40, label %36, !llvm.loop !11

36:                                               ; preds = %30, %33
  %37 = phi i32 [ %34, %33 ], [ 2, %30 ]
  %38 = urem i32 %32, %37
  %39 = icmp eq i32 %38, 0
  br i1 %39, label %46, label %33

40:                                               ; preds = %33
  br i1 %31, label %41, label %46

41:                                               ; preds = %40
  %42 = call i32 (i8*, ...) @printf(i8* nonnull dereferenceable(1) getelementptr inbounds ([7 x i8], [7 x i8]* @.str.2, i64 0, i64 0), i32 %16, i32 %32)
  %43 = load i32, i32* %1, align 4, !tbaa !5
  br label %46

44:                                               ; preds = %24
  %45 = add nuw nsw i32 %16, 2
  br label %46

46:                                               ; preds = %36, %44, %40, %41
  %47 = phi i32 [ %45, %44 ], [ %32, %40 ], [ %32, %41 ], [ %32, %36 ]
  %48 = phi i32 [ %13, %44 ], [ %13, %40 ], [ %43, %41 ], [ %13, %36 ]
  %49 = add nsw i32 %48, -2
  %50 = icmp sgt i32 %47, %49
  %51 = add i32 %15, 1
  %52 = add i32 %14, 1
  br i1 %50, label %53, label %12, !llvm.loop !12

53:                                               ; preds = %46, %6
  call void @llvm.lifetime.end.p0i8(i64 4, i8* nonnull %2) #5
  ret i32 0
}

; Function Attrs: argmemonly mustprogress nofree nosync nounwind willreturn
declare void @llvm.lifetime.start.p0i8(i64 immarg, i8* nocapture) #1

; Function Attrs: nofree nounwind
declare noundef i32 @__isoc99_scanf(i8* nocapture noundef readonly, ...) local_unnamed_addr #2

; Function Attrs: nofree nounwind
declare noundef i32 @printf(i8* nocapture noundef readonly, ...) local_unnamed_addr #2

; Function Attrs: argmemonly mustprogress nofree nosync nounwind willreturn
declare void @llvm.lifetime.end.p0i8(i64 immarg, i8* nocapture) #1

; Function Attrs: nofree nounwind
declare noundef i32 @puts(i8* nocapture noundef readonly) local_unnamed_addr #3

; Function Attrs: nofree nosync nounwind readnone speculatable willreturn
declare i32 @llvm.umax.i32(i32, i32) #4


!llvm.module.flags = !{!0, !1, !2, !3}
!llvm.ident = !{!4}

!0 = !{i32 1, !"wchar_size", i32 4}
!1 = !{i32 7, !"PIC Level", i32 2}
!2 = !{i32 7, !"PIE Level", i32 2}
!3 = !{i32 7, !"uwtable", i32 1}
!4 = !{!"clang version 13.0.0"}
!5 = !{!6, !6, i64 0}
!6 = !{!"int", !7, i64 0}
!7 = !{!"omnipotent char", !8, i64 0}
!8 = !{!"Simple C/C++ TBAA"}
!9 = distinct !{!9, !10}
!10 = !{!"llvm.loop.mustprogress"}
!11 = distinct !{!11, !10}
!12 = distinct !{!12, !10}
